;--------------------------------------------------------
; File Created by SDCC : free open source ANSI-C Compiler
; Version 3.8.0 #10562 (Linux)
;--------------------------------------------------------
	.module main
	.optsdcc -mstm8
	
;--------------------------------------------------------
; Public variables in this module
;--------------------------------------------------------
	.globl _main
	.globl _Delay
	.globl _puts
	.globl _sprintf
	.globl _printf
	.globl _ReadADC
	.globl _Init_UART2
	.globl _OLED_ShowString
	.globl _OLED_Clear
	.globl _OLED_Init
	.globl _GPIO_WriteReverse
	.globl _GPIO_Init
;--------------------------------------------------------
; ram data
;--------------------------------------------------------
	.area DATA
;--------------------------------------------------------
; ram data
;--------------------------------------------------------
	.area INITIALIZED
;--------------------------------------------------------
; Stack segment in internal ram 
;--------------------------------------------------------
	.area	SSEG
__start__stack:
	.ds	1

;--------------------------------------------------------
; absolute external ram data
;--------------------------------------------------------
	.area DABS (ABS)

; default segment ordering for linker
	.area HOME
	.area GSINIT
	.area GSFINAL
	.area CONST
	.area INITIALIZER
	.area CODE

;--------------------------------------------------------
; interrupt vector 
;--------------------------------------------------------
	.area HOME
__interrupt_vect:
	int s_GSINIT ; reset
;--------------------------------------------------------
; global & static initialisations
;--------------------------------------------------------
	.area HOME
	.area GSINIT
	.area GSFINAL
	.area GSINIT
__sdcc_gs_init_startup:
__sdcc_init_data:
; stm8_genXINIT() start
	ldw x, #l_DATA
	jreq	00002$
00001$:
	clr (s_DATA - 1, x)
	decw x
	jrne	00001$
00002$:
	ldw	x, #l_INITIALIZER
	jreq	00004$
00003$:
	ld	a, (s_INITIALIZER - 1, x)
	ld	(s_INITIALIZED - 1, x), a
	decw	x
	jrne	00003$
00004$:
; stm8_genXINIT() end
	.area GSFINAL
	jp	__sdcc_program_startup
;--------------------------------------------------------
; Home
;--------------------------------------------------------
	.area HOME
	.area HOME
__sdcc_program_startup:
	jp	_main
;	return from main will return to caller
;--------------------------------------------------------
; code
;--------------------------------------------------------
	.area CODE
;	main.c: 44: void Delay(uint16_t nCount)
;	-----------------------------------------
;	 function Delay
;	-----------------------------------------
_Delay:
;	main.c: 47: while (nCount != 0)
	ldw	x, (0x03, sp)
00101$:
	tnzw	x
	jrne	00117$
	ret
00117$:
;	main.c: 49: nCount--;
	decw	x
	jra	00101$
;	main.c: 51: }
	ret
;	main.c: 55: void main(void)
;	-----------------------------------------
;	 function main
;	-----------------------------------------
_main:
	sub	sp, #12
;	main.c: 59: GPIO_Init(LED_GPIO_PORT, (GPIO_Pin_TypeDef)LED_GPIO_PINS, GPIO_MODE_OUT_PP_LOW_FAST);
	push	#0xe0
	push	#0x20
	push	#0x14
	push	#0x50
	call	_GPIO_Init
	addw	sp, #4
;	main.c: 61: Init_UART2();
	call	_Init_UART2
;	main.c: 62: OLED_Init();
	call	_OLED_Init
;	main.c: 63: OLED_Clear();
	call	_OLED_Clear
;	main.c: 64: enableInterrupts(); //使能中断
	rim
;	main.c: 66: OLED_ShowString(0,0,"STM8 Started!");
	push	#<___str_0
	push	#(___str_0 >> 8)
	push	#0x00
	push	#0x00
	call	_OLED_ShowString
	addw	sp, #4
;	main.c: 67: printf("STM8 Started!\r\n");
	push	#<___str_2
	push	#(___str_2 >> 8)
	call	_puts
	addw	sp, #2
;	main.c: 69: while (1)
00102$:
;	main.c: 73: sprintf(temp,"%4d",ReadADC());
	call	_ReadADC
	ldw	y, sp
	incw	y
	ldw	(0x0b, sp), y
	pushw	x
	push	#<___str_3
	push	#(___str_3 >> 8)
	pushw	y
	call	_sprintf
	addw	sp, #6
;	main.c: 74: printf("%s",temp);
	ldw	x, (0x0b, sp)
	pushw	x
	push	#<___str_4
	push	#(___str_4 >> 8)
	call	_printf
	addw	sp, #4
;	main.c: 75: OLED_ShowString(0,2,temp);
	ldw	x, (0x0b, sp)
	pushw	x
	push	#0x02
	push	#0x00
	call	_OLED_ShowString
	addw	sp, #4
;	main.c: 76: GPIO_WriteReverse(LED_GPIO_PORT, (GPIO_Pin_TypeDef)LED_GPIO_PINS);
	push	#0x20
	push	#0x14
	push	#0x50
	call	_GPIO_WriteReverse
	addw	sp, #3
;	main.c: 77: Delay(0xffff);
	push	#0xff
	push	#0xff
	call	_Delay
	addw	sp, #2
	jra	00102$
;	main.c: 80: }
	addw	sp, #12
	ret
	.area CODE
	.area CONST
___str_0:
	.ascii "STM8 Started!"
	.db 0x00
___str_2:
	.ascii "STM8 Started!"
	.db 0x0d
	.db 0x00
___str_3:
	.ascii "%4d"
	.db 0x00
___str_4:
	.ascii "%s"
	.db 0x00
	.area INITIALIZER
	.area CABS (ABS)
