                                      1 ;--------------------------------------------------------
                                      2 ; File Created by SDCC : free open source ANSI-C Compiler
                                      3 ; Version 3.8.0 #10562 (Linux)
                                      4 ;--------------------------------------------------------
                                      5 	.module key
                                      6 	.optsdcc -mstm8
                                      7 	
                                      8 ;--------------------------------------------------------
                                      9 ; Public variables in this module
                                     10 ;--------------------------------------------------------
                                     11 	.globl _ITC_SetSoftwarePriority
                                     12 	.globl _GPIO_ReadInputPin
                                     13 	.globl _GPIO_Init
                                     14 	.globl _EXTI_SetTLISensitivity
                                     15 	.globl _EXTI_SetExtIntSensitivity
                                     16 	.globl _keycount
                                     17 	.globl _key_init
                                     18 	.globl _key_read
                                     19 ;--------------------------------------------------------
                                     20 ; ram data
                                     21 ;--------------------------------------------------------
                                     22 	.area DATA
                                     23 ;--------------------------------------------------------
                                     24 ; ram data
                                     25 ;--------------------------------------------------------
                                     26 	.area INITIALIZED
      000000                         27 _keycount::
      000000                         28 	.ds 5
                                     29 ;--------------------------------------------------------
                                     30 ; absolute external ram data
                                     31 ;--------------------------------------------------------
                                     32 	.area DABS (ABS)
                                     33 
                                     34 ; default segment ordering for linker
                                     35 	.area HOME
                                     36 	.area GSINIT
                                     37 	.area GSFINAL
                                     38 	.area CONST
                                     39 	.area INITIALIZER
                                     40 	.area CODE
                                     41 
                                     42 ;--------------------------------------------------------
                                     43 ; global & static initialisations
                                     44 ;--------------------------------------------------------
                                     45 	.area HOME
                                     46 	.area GSINIT
                                     47 	.area GSFINAL
                                     48 	.area GSINIT
                                     49 ;--------------------------------------------------------
                                     50 ; Home
                                     51 ;--------------------------------------------------------
                                     52 	.area HOME
                                     53 	.area HOME
                                     54 ;--------------------------------------------------------
                                     55 ; code
                                     56 ;--------------------------------------------------------
                                     57 	.area CODE
                                     58 ;	driver/key.c: 4: void key_init()
                                     59 ;	-----------------------------------------
                                     60 ;	 function key_init
                                     61 ;	-----------------------------------------
      000000                         62 _key_init:
                                     63 ;	driver/key.c: 6: GPIO_Init(GPIOD,GPIO_PIN_0,GPIO_MODE_IN_FL_IT);
      000000 4B 20            [ 1]   64 	push	#0x20
      000002 4B 01            [ 1]   65 	push	#0x01
      000004 4B 0F            [ 1]   66 	push	#0x0f
      000006 4B 50            [ 1]   67 	push	#0x50
      000008 CDr00r00         [ 4]   68 	call	_GPIO_Init
      00000B 5B 04            [ 2]   69 	addw	sp, #4
                                     70 ;	driver/key.c: 7: GPIO_Init(GPIOD,GPIO_PIN_1,GPIO_MODE_IN_FL_IT);
      00000D 4B 20            [ 1]   71 	push	#0x20
      00000F 4B 02            [ 1]   72 	push	#0x02
      000011 4B 0F            [ 1]   73 	push	#0x0f
      000013 4B 50            [ 1]   74 	push	#0x50
      000015 CDr00r00         [ 4]   75 	call	_GPIO_Init
      000018 5B 04            [ 2]   76 	addw	sp, #4
                                     77 ;	driver/key.c: 8: GPIO_Init(GPIOD,GPIO_PIN_2,GPIO_MODE_IN_FL_IT);
      00001A 4B 20            [ 1]   78 	push	#0x20
      00001C 4B 04            [ 1]   79 	push	#0x04
      00001E 4B 0F            [ 1]   80 	push	#0x0f
      000020 4B 50            [ 1]   81 	push	#0x50
      000022 CDr00r00         [ 4]   82 	call	_GPIO_Init
      000025 5B 04            [ 2]   83 	addw	sp, #4
                                     84 ;	driver/key.c: 9: GPIO_Init(GPIOD,GPIO_PIN_3,GPIO_MODE_IN_FL_IT);
      000027 4B 20            [ 1]   85 	push	#0x20
      000029 4B 08            [ 1]   86 	push	#0x08
      00002B 4B 0F            [ 1]   87 	push	#0x0f
      00002D 4B 50            [ 1]   88 	push	#0x50
      00002F CDr00r00         [ 4]   89 	call	_GPIO_Init
      000032 5B 04            [ 2]   90 	addw	sp, #4
                                     91 ;	driver/key.c: 10: GPIO_Init(GPIOD,GPIO_PIN_4,GPIO_MODE_IN_FL_IT);
      000034 4B 20            [ 1]   92 	push	#0x20
      000036 4B 10            [ 1]   93 	push	#0x10
      000038 4B 0F            [ 1]   94 	push	#0x0f
      00003A 4B 50            [ 1]   95 	push	#0x50
      00003C CDr00r00         [ 4]   96 	call	_GPIO_Init
      00003F 5B 04            [ 2]   97 	addw	sp, #4
                                     98 ;	driver/key.c: 11: EXTI_SetExtIntSensitivity(EXTI_PORT_GPIOD,EXTI_SENSITIVITY_FALL_ONLY);
      000041 4B 02            [ 1]   99 	push	#0x02
      000043 4B 03            [ 1]  100 	push	#0x03
      000045 CDr00r00         [ 4]  101 	call	_EXTI_SetExtIntSensitivity
      000048 5B 02            [ 2]  102 	addw	sp, #2
                                    103 ;	driver/key.c: 12: EXTI_SetTLISensitivity(EXTI_TLISENSITIVITY_FALL_ONLY);
      00004A 4B 00            [ 1]  104 	push	#0x00
      00004C CDr00r00         [ 4]  105 	call	_EXTI_SetTLISensitivity
      00004F 84               [ 1]  106 	pop	a
                                    107 ;	driver/key.c: 13: ITC_SetSoftwarePriority(ITC_IRQ_PORTD,ITC_PRIORITYLEVEL_1);
      000050 4B 01            [ 1]  108 	push	#0x01
      000052 4B 06            [ 1]  109 	push	#0x06
      000054 CDr00r00         [ 4]  110 	call	_ITC_SetSoftwarePriority
      000057 5B 02            [ 2]  111 	addw	sp, #2
                                    112 ;	driver/key.c: 14: }
      000059 81               [ 4]  113 	ret
                                    114 ;	driver/key.c: 15: BitStatus key_read(u8 num)
                                    115 ;	-----------------------------------------
                                    116 ;	 function key_read
                                    117 ;	-----------------------------------------
      00005A                        118 _key_read:
                                    119 ;	driver/key.c: 18: return GPIO_ReadInputPin(GPIOD,GPIO_PIN_0 << num);
      00005A A6 01            [ 1]  120 	ld	a, #0x01
      00005C 88               [ 1]  121 	push	a
      00005D 7B 04            [ 1]  122 	ld	a, (0x04, sp)
      00005F 27 05            [ 1]  123 	jreq	00104$
      000061                        124 00103$:
      000061 08 01            [ 1]  125 	sll	(1, sp)
      000063 4A               [ 1]  126 	dec	a
      000064 26 FB            [ 1]  127 	jrne	00103$
      000066                        128 00104$:
      000066 84               [ 1]  129 	pop	a
      000067 88               [ 1]  130 	push	a
      000068 4B 0F            [ 1]  131 	push	#0x0f
      00006A 4B 50            [ 1]  132 	push	#0x50
      00006C CDr00r00         [ 4]  133 	call	_GPIO_ReadInputPin
      00006F 5B 03            [ 2]  134 	addw	sp, #3
                                    135 ;	driver/key.c: 20: }
      000071 81               [ 4]  136 	ret
                                    137 	.area CODE
                                    138 	.area CONST
                                    139 	.area INITIALIZER
      000000                        140 __xinit__keycount:
      000000 00                     141 	.db #0x00	; 0
      000001 00                     142 	.db #0x00	; 0
      000002 00                     143 	.db #0x00	; 0
      000003 00                     144 	.db #0x00	; 0
      000004 00                     145 	.db #0x00	; 0
                                    146 	.area CABS (ABS)
