                                      1 ;--------------------------------------------------------
                                      2 ; File Created by SDCC : free open source ANSI-C Compiler
                                      3 ; Version 3.8.0 #10562 (Linux)
                                      4 ;--------------------------------------------------------
                                      5 	.module stm8s_it
                                      6 	.optsdcc -mstm8
                                      7 	
                                      8 ;--------------------------------------------------------
                                      9 ; Public variables in this module
                                     10 ;--------------------------------------------------------
                                     11 	.globl _TIM3_CAP_COM_IRQHandler
                                     12 	.globl _TIM3_UPD_OVF_BRK_IRQHandler
                                     13 	.globl _modbus_process
                                     14 	.globl _key_read
                                     15 	.globl _UART2_ClearITPendingBit
                                     16 	.globl _UART2_GetITStatus
                                     17 	.globl _UART2_ReceiveData8
                                     18 	.globl _last_uart_receive_time
                                     19 	.globl _TRAP_IRQHandler
                                     20 	.globl _TLI_IRQHandler
                                     21 	.globl _AWU_IRQHandler
                                     22 	.globl _CLK_IRQHandler
                                     23 	.globl _EXTI_PORTA_IRQHandler
                                     24 	.globl _EXTI_PORTB_IRQHandler
                                     25 	.globl _EXTI_PORTC_IRQHandler
                                     26 	.globl _EXTI_PORTD_IRQHandler
                                     27 	.globl _EXTI_PORTE_IRQHandler
                                     28 	.globl _SPI_IRQHandler
                                     29 	.globl _TIM1_UPD_OVF_TRG_BRK_IRQHandler
                                     30 	.globl _TIM1_CAP_COM_IRQHandler
                                     31 	.globl _TIM2_UPD_OVF_BRK_IRQHandler
                                     32 	.globl _TIM2_CAP_COM_IRQHandler
                                     33 	.globl _I2C_IRQHandler
                                     34 	.globl _UART2_TX_IRQHandler
                                     35 	.globl _UART2_RX_IRQHandler
                                     36 	.globl _ADC1_IRQHandler
                                     37 	.globl _TIM4_UPD_OVF_IRQHandler
                                     38 	.globl _EEPROM_EEC_IRQHandler
                                     39 ;--------------------------------------------------------
                                     40 ; ram data
                                     41 ;--------------------------------------------------------
                                     42 	.area DATA
                                     43 ;--------------------------------------------------------
                                     44 ; ram data
                                     45 ;--------------------------------------------------------
                                     46 	.area INITIALIZED
      000000                         47 _last_uart_receive_time::
      000000                         48 	.ds 1
                                     49 ;--------------------------------------------------------
                                     50 ; absolute external ram data
                                     51 ;--------------------------------------------------------
                                     52 	.area DABS (ABS)
                                     53 
                                     54 ; default segment ordering for linker
                                     55 	.area HOME
                                     56 	.area GSINIT
                                     57 	.area GSFINAL
                                     58 	.area CONST
                                     59 	.area INITIALIZER
                                     60 	.area CODE
                                     61 
                                     62 ;--------------------------------------------------------
                                     63 ; global & static initialisations
                                     64 ;--------------------------------------------------------
                                     65 	.area HOME
                                     66 	.area GSINIT
                                     67 	.area GSFINAL
                                     68 	.area GSINIT
                                     69 ;--------------------------------------------------------
                                     70 ; Home
                                     71 ;--------------------------------------------------------
                                     72 	.area HOME
                                     73 	.area HOME
                                     74 ;--------------------------------------------------------
                                     75 ; code
                                     76 ;--------------------------------------------------------
                                     77 	.area CODE
                                     78 ;	driver/stm8s_it.c: 67: INTERRUPT_HANDLER_TRAP(TRAP_IRQHandler)
                                     79 ;	-----------------------------------------
                                     80 ;	 function TRAP_IRQHandler
                                     81 ;	-----------------------------------------
      000000                         82 _TRAP_IRQHandler:
                                     83 ;	driver/stm8s_it.c: 74: }
      000000 80               [11]   84 	iret
                                     85 ;	driver/stm8s_it.c: 81: INTERRUPT_HANDLER(TLI_IRQHandler, 0)
                                     86 ;	-----------------------------------------
                                     87 ;	 function TLI_IRQHandler
                                     88 ;	-----------------------------------------
      000001                         89 _TLI_IRQHandler:
                                     90 ;	driver/stm8s_it.c: 87: }
      000001 80               [11]   91 	iret
                                     92 ;	driver/stm8s_it.c: 94: INTERRUPT_HANDLER(AWU_IRQHandler, 1)
                                     93 ;	-----------------------------------------
                                     94 ;	 function AWU_IRQHandler
                                     95 ;	-----------------------------------------
      000002                         96 _AWU_IRQHandler:
                                     97 ;	driver/stm8s_it.c: 99: }
      000002 80               [11]   98 	iret
                                     99 ;	driver/stm8s_it.c: 106: INTERRUPT_HANDLER(CLK_IRQHandler, 2)
                                    100 ;	-----------------------------------------
                                    101 ;	 function CLK_IRQHandler
                                    102 ;	-----------------------------------------
      000003                        103 _CLK_IRQHandler:
                                    104 ;	driver/stm8s_it.c: 111: }
      000003 80               [11]  105 	iret
                                    106 ;	driver/stm8s_it.c: 118: INTERRUPT_HANDLER(EXTI_PORTA_IRQHandler, 3)
                                    107 ;	-----------------------------------------
                                    108 ;	 function EXTI_PORTA_IRQHandler
                                    109 ;	-----------------------------------------
      000004                        110 _EXTI_PORTA_IRQHandler:
                                    111 ;	driver/stm8s_it.c: 123: }
      000004 80               [11]  112 	iret
                                    113 ;	driver/stm8s_it.c: 130: INTERRUPT_HANDLER(EXTI_PORTB_IRQHandler, 4)
                                    114 ;	-----------------------------------------
                                    115 ;	 function EXTI_PORTB_IRQHandler
                                    116 ;	-----------------------------------------
      000005                        117 _EXTI_PORTB_IRQHandler:
                                    118 ;	driver/stm8s_it.c: 135: }
      000005 80               [11]  119 	iret
                                    120 ;	driver/stm8s_it.c: 142: INTERRUPT_HANDLER(EXTI_PORTC_IRQHandler, 5)
                                    121 ;	-----------------------------------------
                                    122 ;	 function EXTI_PORTC_IRQHandler
                                    123 ;	-----------------------------------------
      000006                        124 _EXTI_PORTC_IRQHandler:
                                    125 ;	driver/stm8s_it.c: 147: }
      000006 80               [11]  126 	iret
                                    127 ;	driver/stm8s_it.c: 155: INTERRUPT_HANDLER(EXTI_PORTD_IRQHandler, 6)
                                    128 ;	-----------------------------------------
                                    129 ;	 function EXTI_PORTD_IRQHandler
                                    130 ;	-----------------------------------------
      000007                        131 _EXTI_PORTD_IRQHandler:
      000007 4F               [ 1]  132 	clr	a
      000008 62               [ 2]  133 	div	x, a
                                    134 ;	driver/stm8s_it.c: 161: for(temp=0;temp<500;temp++) //延时去抖
      000009 AE 01 F4         [ 2]  135 	ldw	x, #0x01f4
      00000C                        136 00107$:
                                    137 ;	driver/stm8s_it.c: 163: nop();nop();nop();nop();nop();
      00000C 9D               [ 1]  138 	nop
      00000D 9D               [ 1]  139 	nop
      00000E 9D               [ 1]  140 	nop
      00000F 9D               [ 1]  141 	nop
      000010 9D               [ 1]  142 	nop
      000011 5A               [ 2]  143 	decw	x
                                    144 ;	driver/stm8s_it.c: 161: for(temp=0;temp<500;temp++) //延时去抖
                                    145 ;	driver/stm8s_it.c: 165: for(temp=0;temp<5;temp++)
      000012 5D               [ 2]  146 	tnzw	x
      000013 26 F7            [ 1]  147 	jrne	00107$
      000015                        148 00108$:
                                    149 ;	driver/stm8s_it.c: 167: if(key_read(temp)==RESET) keycount[temp]++;
      000015 9F               [ 1]  150 	ld	a, xl
      000016 89               [ 2]  151 	pushw	x
      000017 88               [ 1]  152 	push	a
      000018 CDr00r00         [ 4]  153 	call	_key_read
      00001B 5B 01            [ 2]  154 	addw	sp, #1
      00001D 85               [ 2]  155 	popw	x
      00001E 4D               [ 1]  156 	tnz	a
      00001F 26 0B            [ 1]  157 	jrne	00109$
      000021 90 93            [ 1]  158 	ldw	y, x
      000023 72 A9r00r00      [ 2]  159 	addw	y, #_keycount
      000027 90 F6            [ 1]  160 	ld	a, (y)
      000029 4C               [ 1]  161 	inc	a
      00002A 90 F7            [ 1]  162 	ld	(y), a
      00002C                        163 00109$:
                                    164 ;	driver/stm8s_it.c: 165: for(temp=0;temp<5;temp++)
      00002C 5C               [ 1]  165 	incw	x
      00002D A3 00 05         [ 2]  166 	cpw	x, #0x0005
      000030 25 E3            [ 1]  167 	jrc	00108$
                                    168 ;	driver/stm8s_it.c: 170: }
      000032 80               [11]  169 	iret
                                    170 ;	driver/stm8s_it.c: 177: INTERRUPT_HANDLER(EXTI_PORTE_IRQHandler, 7)
                                    171 ;	-----------------------------------------
                                    172 ;	 function EXTI_PORTE_IRQHandler
                                    173 ;	-----------------------------------------
      000033                        174 _EXTI_PORTE_IRQHandler:
                                    175 ;	driver/stm8s_it.c: 182: }
      000033 80               [11]  176 	iret
                                    177 ;	driver/stm8s_it.c: 229: INTERRUPT_HANDLER(SPI_IRQHandler, 10)
                                    178 ;	-----------------------------------------
                                    179 ;	 function SPI_IRQHandler
                                    180 ;	-----------------------------------------
      000034                        181 _SPI_IRQHandler:
                                    182 ;	driver/stm8s_it.c: 234: }
      000034 80               [11]  183 	iret
                                    184 ;	driver/stm8s_it.c: 241: INTERRUPT_HANDLER(TIM1_UPD_OVF_TRG_BRK_IRQHandler, 11)
                                    185 ;	-----------------------------------------
                                    186 ;	 function TIM1_UPD_OVF_TRG_BRK_IRQHandler
                                    187 ;	-----------------------------------------
      000035                        188 _TIM1_UPD_OVF_TRG_BRK_IRQHandler:
                                    189 ;	driver/stm8s_it.c: 246: }
      000035 80               [11]  190 	iret
                                    191 ;	driver/stm8s_it.c: 253: INTERRUPT_HANDLER(TIM1_CAP_COM_IRQHandler, 12)
                                    192 ;	-----------------------------------------
                                    193 ;	 function TIM1_CAP_COM_IRQHandler
                                    194 ;	-----------------------------------------
      000036                        195 _TIM1_CAP_COM_IRQHandler:
                                    196 ;	driver/stm8s_it.c: 258: }
      000036 80               [11]  197 	iret
                                    198 ;	driver/stm8s_it.c: 291: INTERRUPT_HANDLER(TIM2_UPD_OVF_BRK_IRQHandler, 13)
                                    199 ;	-----------------------------------------
                                    200 ;	 function TIM2_UPD_OVF_BRK_IRQHandler
                                    201 ;	-----------------------------------------
      000037                        202 _TIM2_UPD_OVF_BRK_IRQHandler:
                                    203 ;	driver/stm8s_it.c: 296: }
      000037 80               [11]  204 	iret
                                    205 ;	driver/stm8s_it.c: 303: INTERRUPT_HANDLER(TIM2_CAP_COM_IRQHandler, 14)
                                    206 ;	-----------------------------------------
                                    207 ;	 function TIM2_CAP_COM_IRQHandler
                                    208 ;	-----------------------------------------
      000038                        209 _TIM2_CAP_COM_IRQHandler:
                                    210 ;	driver/stm8s_it.c: 308: }
      000038 80               [11]  211 	iret
                                    212 ;	driver/stm8s_it.c: 318: INTERRUPT_HANDLER(TIM3_UPD_OVF_BRK_IRQHandler, 15)
                                    213 ;	-----------------------------------------
                                    214 ;	 function TIM3_UPD_OVF_BRK_IRQHandler
                                    215 ;	-----------------------------------------
      000039                        216 _TIM3_UPD_OVF_BRK_IRQHandler:
                                    217 ;	driver/stm8s_it.c: 323: }
      000039 80               [11]  218 	iret
                                    219 ;	driver/stm8s_it.c: 330: INTERRUPT_HANDLER(TIM3_CAP_COM_IRQHandler, 16)
                                    220 ;	-----------------------------------------
                                    221 ;	 function TIM3_CAP_COM_IRQHandler
                                    222 ;	-----------------------------------------
      00003A                        223 _TIM3_CAP_COM_IRQHandler:
                                    224 ;	driver/stm8s_it.c: 335: }
      00003A 80               [11]  225 	iret
                                    226 ;	driver/stm8s_it.c: 400: INTERRUPT_HANDLER(I2C_IRQHandler, 19)
                                    227 ;	-----------------------------------------
                                    228 ;	 function I2C_IRQHandler
                                    229 ;	-----------------------------------------
      00003B                        230 _I2C_IRQHandler:
                                    231 ;	driver/stm8s_it.c: 405: }
      00003B 80               [11]  232 	iret
                                    233 ;	driver/stm8s_it.c: 413: INTERRUPT_HANDLER(UART2_TX_IRQHandler, 20)
                                    234 ;	-----------------------------------------
                                    235 ;	 function UART2_TX_IRQHandler
                                    236 ;	-----------------------------------------
      00003C                        237 _UART2_TX_IRQHandler:
                                    238 ;	driver/stm8s_it.c: 418: }
      00003C 80               [11]  239 	iret
                                    240 ;	driver/stm8s_it.c: 427: INTERRUPT_HANDLER(UART2_RX_IRQHandler, 21)
                                    241 ;	-----------------------------------------
                                    242 ;	 function UART2_RX_IRQHandler
                                    243 ;	-----------------------------------------
      00003D                        244 _UART2_RX_IRQHandler:
      00003D 4F               [ 1]  245 	clr	a
      00003E 62               [ 2]  246 	div	x, a
      00003F 52 04            [ 2]  247 	sub	sp, #4
                                    248 ;	driver/stm8s_it.c: 432: if(UART2_GetITStatus(UART2_IT_RXNE))
      000041 4B 55            [ 1]  249 	push	#0x55
      000043 4B 02            [ 1]  250 	push	#0x02
      000045 CDr00r00         [ 4]  251 	call	_UART2_GetITStatus
      000048 5B 02            [ 2]  252 	addw	sp, #2
      00004A 4D               [ 1]  253 	tnz	a
      00004B 27 47            [ 1]  254 	jreq	00105$
                                    255 ;	driver/stm8s_it.c: 437: if(ds_time.second/2 == last_uart_receive_time/2)
      00004D AEr00r06         [ 2]  256 	ldw	x, #_ds_time+6
      000050 F6               [ 1]  257 	ld	a, (x)
      000051 5F               [ 1]  258 	clrw	x
      000052 97               [ 1]  259 	ld	xl, a
      000053 4B 02            [ 1]  260 	push	#0x02
      000055 4B 00            [ 1]  261 	push	#0x00
      000057 89               [ 2]  262 	pushw	x
      000058 CDr00r00         [ 4]  263 	call	__divsint
      00005B 5B 04            [ 2]  264 	addw	sp, #4
      00005D 1F 03            [ 2]  265 	ldw	(0x03, sp), x
      00005F 5F               [ 1]  266 	clrw	x
      000060 C6u00u00         [ 1]  267 	ld	a, _last_uart_receive_time+0
      000063 97               [ 1]  268 	ld	xl, a
      000064 4B 02            [ 1]  269 	push	#0x02
      000066 4B 00            [ 1]  270 	push	#0x00
      000068 89               [ 2]  271 	pushw	x
      000069 CDr00r00         [ 4]  272 	call	__divsint
      00006C 5B 04            [ 2]  273 	addw	sp, #4
      00006E 1F 01            [ 2]  274 	ldw	(0x01, sp), x
      000070 1E 03            [ 2]  275 	ldw	x, (0x03, sp)
      000072 13 01            [ 2]  276 	cpw	x, (0x01, sp)
      000074 26 14            [ 1]  277 	jrne	00102$
                                    278 ;	driver/stm8s_it.c: 439: modbus_buff[modbus_status]=UART2_ReceiveData8();
      000076 5F               [ 1]  279 	clrw	x
      000077 C6u00u00         [ 1]  280 	ld	a, _modbus_status+0
      00007A 97               [ 1]  281 	ld	xl, a
      00007B 1Cr00r00         [ 2]  282 	addw	x, #_modbus_buff
      00007E 89               [ 2]  283 	pushw	x
      00007F CDr00r00         [ 4]  284 	call	_UART2_ReceiveData8
      000082 85               [ 2]  285 	popw	x
      000083 F7               [ 1]  286 	ld	(x), a
                                    287 ;	driver/stm8s_it.c: 440: modbus_status++;
      000084 72 5Cu00u00      [ 1]  288 	inc	_modbus_status+0
      000088 20 0A            [ 2]  289 	jra	00105$
      00008A                        290 00102$:
                                    291 ;	driver/stm8s_it.c: 444: modbus_buff[0]=UART2_ReceiveData8();
      00008A CDr00r00         [ 4]  292 	call	_UART2_ReceiveData8
      00008D C7u00u00         [ 1]  293 	ld	_modbus_buff, a
                                    294 ;	driver/stm8s_it.c: 445: modbus_status=1;
      000090 35 01u00u00      [ 1]  295 	mov	_modbus_status+0, #0x01
      000094                        296 00105$:
                                    297 ;	driver/stm8s_it.c: 450: if(modbus_status>7)
      000094 C6u00u00         [ 1]  298 	ld	a, _modbus_status+0
      000097 A1 07            [ 1]  299 	cp	a, #0x07
      000099 23 07            [ 2]  300 	jrule	00107$
                                    301 ;	driver/stm8s_it.c: 452: modbus_process();
      00009B CDr00r00         [ 4]  302 	call	_modbus_process
                                    303 ;	driver/stm8s_it.c: 453: modbus_status=0;
      00009E 72 5Fu00u00      [ 1]  304 	clr	_modbus_status+0
      0000A2                        305 00107$:
                                    306 ;	driver/stm8s_it.c: 456: last_uart_receive_time=ds_time.second;
      0000A2 AEr00r06         [ 2]  307 	ldw	x, #_ds_time+6
      0000A5 F6               [ 1]  308 	ld	a, (x)
      0000A6 C7u00u00         [ 1]  309 	ld	_last_uart_receive_time+0, a
                                    310 ;	driver/stm8s_it.c: 457: UART2_ClearITPendingBit(UART2_IT_RXNE);
      0000A9 4B 55            [ 1]  311 	push	#0x55
      0000AB 4B 02            [ 1]  312 	push	#0x02
      0000AD CDr00r00         [ 4]  313 	call	_UART2_ClearITPendingBit
      0000B0 5B 02            [ 2]  314 	addw	sp, #2
                                    315 ;	driver/stm8s_it.c: 460: if(UART2_GetITStatus(UART2_IT_OR))
      0000B2 4B 35            [ 1]  316 	push	#0x35
      0000B4 4B 02            [ 1]  317 	push	#0x02
      0000B6 CDr00r00         [ 4]  318 	call	_UART2_GetITStatus
      0000B9 5B 02            [ 2]  319 	addw	sp, #2
      0000BB 4D               [ 1]  320 	tnz	a
      0000BC 27 09            [ 1]  321 	jreq	00110$
                                    322 ;	driver/stm8s_it.c: 462: UART2_ClearITPendingBit(UART2_IT_OR);
      0000BE 4B 35            [ 1]  323 	push	#0x35
      0000C0 4B 02            [ 1]  324 	push	#0x02
      0000C2 CDr00r00         [ 4]  325 	call	_UART2_ClearITPendingBit
      0000C5 5B 02            [ 2]  326 	addw	sp, #2
      0000C7                        327 00110$:
                                    328 ;	driver/stm8s_it.c: 465: }
      0000C7 5B 04            [ 2]  329 	addw	sp, #4
      0000C9 80               [11]  330 	iret
                                    331 ;	driver/stm8s_it.c: 514: INTERRUPT_HANDLER(ADC1_IRQHandler, 22)
                                    332 ;	-----------------------------------------
                                    333 ;	 function ADC1_IRQHandler
                                    334 ;	-----------------------------------------
      0000CA                        335 _ADC1_IRQHandler:
                                    336 ;	driver/stm8s_it.c: 519: }
      0000CA 80               [11]  337 	iret
                                    338 ;	driver/stm8s_it.c: 540: INTERRUPT_HANDLER(TIM4_UPD_OVF_IRQHandler, 23)
                                    339 ;	-----------------------------------------
                                    340 ;	 function TIM4_UPD_OVF_IRQHandler
                                    341 ;	-----------------------------------------
      0000CB                        342 _TIM4_UPD_OVF_IRQHandler:
                                    343 ;	driver/stm8s_it.c: 545: }
      0000CB 80               [11]  344 	iret
                                    345 ;	driver/stm8s_it.c: 553: INTERRUPT_HANDLER(EEPROM_EEC_IRQHandler, 24)
                                    346 ;	-----------------------------------------
                                    347 ;	 function EEPROM_EEC_IRQHandler
                                    348 ;	-----------------------------------------
      0000CC                        349 _EEPROM_EEC_IRQHandler:
                                    350 ;	driver/stm8s_it.c: 558: }
      0000CC 80               [11]  351 	iret
                                    352 	.area CODE
                                    353 	.area CONST
                                    354 	.area INITIALIZER
      000000                        355 __xinit__last_uart_receive_time:
      000000 00                     356 	.db #0x00	; 0
                                    357 	.area CABS (ABS)
